target datalayout = "e-m:e-p270:32:32-p271:32:32-p272:64:64-i64:64-i128:128-f80:128-n8:16:32:64-S128"
target triple = "x86_64-pc-linux-gnu"

%struct.AVRational = type { i32, i32 }
%struct.Jpeg2000DecoderContext = type { ptr, ptr, %struct.GetByteContext, i32, i32, i32, i32, i32, i32, [4 x i8], [4 x i8], [4 x i8], i8, ptr, i32, %struct.GetByteContext, [4 x i32], [4 x i32], i32, i32, i32, [256 x i32], i8, [4 x i32], i32, i32, i32, i32, i32, %struct.AVRational, [4 x %struct.Jpeg2000CodingStyle], [4 x %struct.Jpeg2000QuantStyle], %struct.Jpeg2000POC, [4 x i8], i32, i32, ptr, %struct.Jpeg2000DSPContext, i8, i8, i8, i8, i8, i8, i32 }
%struct.GetByteContext = type { ptr, ptr, ptr }
%struct.Jpeg2000CodingStyle = type { i32, i32, i8, i8, i8, i8, i8, i8, i8, i8, [34 x i8], [34 x i8], i8 }
%struct.Jpeg2000QuantStyle = type { [99 x i8], [99 x i16], i8, i8 }
%struct.Jpeg2000POC = type { [32 x %struct.Jpeg2000POCEntry], i32, i32 }
%struct.Jpeg2000POCEntry = type { i16, i16, i16, i8, i8, i8 }
%struct.Jpeg2000DSPContext = type { [3 x ptr] }
%struct.Jpeg2000Tile = type { ptr, [4 x i8], [4 x %struct.Jpeg2000CodingStyle], [4 x %struct.Jpeg2000QuantStyle], %struct.Jpeg2000POC, [32 x %struct.Jpeg2000TilePart], i8, ptr, i32, %struct.GetByteContext, i16, [2 x [2 x i32]] }
%struct.Jpeg2000TilePart = type { i8, ptr, %struct.GetByteContext, %struct.GetByteContext }
%struct.Jpeg2000Component = type { ptr, %struct.DWTContext, ptr, ptr, [2 x [2 x i32]], [2 x [2 x i32]], i8 }
%struct.DWTContext = type { [32 x [2 x i32]], [32 x [2 x i8]], i8, i8, ptr, ptr }

; Function Attrs: nounwind uwtable
define internal void @jpeg2000_dec_cleanup(ptr noundef %0) #1 {
  %2 = alloca ptr, align 8
  %3 = alloca i32, align 4
  %4 = alloca i32, align 4
  %5 = alloca ptr, align 8
  %6 = alloca ptr, align 8
  store ptr %0, ptr %2, align 8, !tbaa !29
  call void @llvm.lifetime.start.p0(i64 4, ptr %3) #12
  call void @llvm.lifetime.start.p0(i64 4, ptr %4) #12
  store i32 0, ptr %3, align 4, !tbaa !48
  br label %7

7:                                                ; preds = %85, %1
  %8 = load i32, ptr %3, align 4, !tbaa !48
  %9 = load ptr, ptr %2, align 8, !tbaa !29
  %10 = getelementptr inbounds nuw %struct.Jpeg2000DecoderContext, ptr %9, i32 0, i32 26
  %11 = load i32, ptr %10, align 8, !tbaa !67
  %12 = load ptr, ptr %2, align 8, !tbaa !29
  %13 = getelementptr inbounds nuw %struct.Jpeg2000DecoderContext, ptr %12, i32 0, i32 27
  %14 = load i32, ptr %13, align 4, !tbaa !68
  %15 = mul i32 %11, %14
  %16 = icmp ult i32 %8, %15
  br i1 %16, label %17, label %88

17:                                               ; preds = %7
  %18 = load ptr, ptr %2, align 8, !tbaa !29
  %19 = getelementptr inbounds nuw %struct.Jpeg2000DecoderContext, ptr %18, i32 0, i32 36
  %20 = load ptr, ptr %19, align 8, !tbaa !92
  %21 = load i32, ptr %3, align 4, !tbaa !48
  %22 = sext i32 %21 to i64
  %23 = getelementptr inbounds %struct.Jpeg2000Tile, ptr %20, i64 %22
  %24 = getelementptr inbounds nuw %struct.Jpeg2000Tile, ptr %23, i32 0, i32 0
  %25 = load ptr, ptr %24, align 8, !tbaa !113
  %26 = icmp ne ptr %25, null
  br i1 %26, label %27, label %84

27:                                               ; preds = %17
  store i32 0, ptr %4, align 4, !tbaa !48
  br label %28

28:                                               ; preds = %59, %27
  %29 = load i32, ptr %4, align 4, !tbaa !48
  %30 = load ptr, ptr %2, align 8, !tbaa !29
  %31 = getelementptr inbounds nuw %struct.Jpeg2000DecoderContext, ptr %30, i32 0, i32 19
  %32 = load i32, ptr %31, align 4, !tbaa !55
  %33 = icmp slt i32 %29, %32
  br i1 %33, label %34, label %62

34:                                               ; preds = %28
  call void @llvm.lifetime.start.p0(i64 8, ptr %5) #12
  %35 = load ptr, ptr %2, align 8, !tbaa !29
  %36 = getelementptr inbounds nuw %struct.Jpeg2000DecoderContext, ptr %35, i32 0, i32 36
  %37 = load ptr, ptr %36, align 8, !tbaa !92
  %38 = load i32, ptr %3, align 4, !tbaa !48
  %39 = sext i32 %38 to i64
  %40 = getelementptr inbounds %struct.Jpeg2000Tile, ptr %37, i64 %39
  %41 = getelementptr inbounds nuw %struct.Jpeg2000Tile, ptr %40, i32 0, i32 0
  %42 = load ptr, ptr %41, align 8, !tbaa !113
  %43 = load i32, ptr %4, align 4, !tbaa !48
  %44 = sext i32 %43 to i64
  %45 = getelementptr inbounds %struct.Jpeg2000Component, ptr %42, i64 %44
  store ptr %45, ptr %5, align 8, !tbaa !114
  call void @llvm.lifetime.start.p0(i64 8, ptr %6) #12
  %46 = load ptr, ptr %2, align 8, !tbaa !29
  %47 = getelementptr inbounds nuw %struct.Jpeg2000DecoderContext, ptr %46, i32 0, i32 36
  %48 = load ptr, ptr %47, align 8, !tbaa !92
  %49 = load i32, ptr %3, align 4, !tbaa !48
  %50 = sext i32 %49 to i64
  %51 = getelementptr inbounds %struct.Jpeg2000Tile, ptr %48, i64 %50
  %52 = getelementptr inbounds nuw %struct.Jpeg2000Tile, ptr %51, i32 0, i32 2
  %53 = getelementptr inbounds [4 x %struct.Jpeg2000CodingStyle], ptr %52, i64 0, i64 0
  %54 = load i32, ptr %4, align 4, !tbaa !48
  %55 = sext i32 %54 to i64
  %56 = getelementptr inbounds %struct.Jpeg2000CodingStyle, ptr %53, i64 %55
  store ptr %56, ptr %6, align 8, !tbaa !83
  %57 = load ptr, ptr %5, align 8, !tbaa !114
  %58 = load ptr, ptr %6, align 8, !tbaa !83
  call void @ff_jpeg2000_cleanup(ptr noundef %57, ptr noundef %58)
  call void @llvm.lifetime.end.p0(i64 8, ptr %6) #12
  call void @llvm.lifetime.end.p0(i64 8, ptr %5) #12
  br label %59

59:                                               ; preds = %34
  %60 = load i32, ptr %4, align 4, !tbaa !48
  %61 = add nsw i32 %60, 1
  store i32 %61, ptr %4, align 4, !tbaa !48
  br label %28, !llvm.loop !115

62:                                               ; preds = %28
  %63 = load ptr, ptr %2, align 8, !tbaa !29
  %64 = getelementptr inbounds nuw %struct.Jpeg2000DecoderContext, ptr %63, i32 0, i32 36
  %65 = load ptr, ptr %64, align 8, !tbaa !92
  %66 = load i32, ptr %3, align 4, !tbaa !48
  %67 = sext i32 %66 to i64
  %68 = getelementptr inbounds %struct.Jpeg2000Tile, ptr %65, i64 %67
  %69 = getelementptr inbounds nuw %struct.Jpeg2000Tile, ptr %68, i32 0, i32 0
  call void @av_freep(ptr noundef %69)
  %70 = load ptr, ptr %2, align 8, !tbaa !29
  %71 = getelementptr inbounds nuw %struct.Jpeg2000DecoderContext, ptr %70, i32 0, i32 36
  %72 = load ptr, ptr %71, align 8, !tbaa !92
  %73 = load i32, ptr %3, align 4, !tbaa !48
  %74 = sext i32 %73 to i64
  %75 = getelementptr inbounds %struct.Jpeg2000Tile, ptr %72, i64 %74
  %76 = getelementptr inbounds nuw %struct.Jpeg2000Tile, ptr %75, i32 0, i32 7
  call void @av_freep(ptr noundef %76)
  %77 = load ptr, ptr %2, align 8, !tbaa !29
  %78 = getelementptr inbounds nuw %struct.Jpeg2000DecoderContext, ptr %77, i32 0, i32 36
  %79 = load ptr, ptr %78, align 8, !tbaa !92
  %80 = load i32, ptr %3, align 4, !tbaa !48
  %81 = sext i32 %80 to i64
  %82 = getelementptr inbounds %struct.Jpeg2000Tile, ptr %79, i64 %81
  %83 = getelementptr inbounds nuw %struct.Jpeg2000Tile, ptr %82, i32 0, i32 8
  store i32 0, ptr %83, align 8, !tbaa !106
  br label %84

84:                                               ; preds = %62, %17
  br label %85

85:                                               ; preds = %84
  %86 = load i32, ptr %3, align 4, !tbaa !48
  %87 = add nsw i32 %86, 1
  store i32 %87, ptr %3, align 4, !tbaa !48
  br label %7, !llvm.loop !116

88:                                               ; preds = %7
  %89 = load ptr, ptr %2, align 8, !tbaa !29
  %90 = getelementptr inbounds nuw %struct.Jpeg2000DecoderContext, ptr %89, i32 0, i32 13
  call void @av_freep(ptr noundef %90)
  %91 = load ptr, ptr %2, align 8, !tbaa !29
  %92 = getelementptr inbounds nuw %struct.Jpeg2000DecoderContext, ptr %91, i32 0, i32 14
  store i32 0, ptr %92, align 8, !tbaa !112
  %93 = load ptr, ptr %2, align 8, !tbaa !29
  %94 = getelementptr inbounds nuw %struct.Jpeg2000DecoderContext, ptr %93, i32 0, i32 15
  call void @llvm.memset.p0.i64(ptr align 8 %94, i8 0, i64 24, i1 false)
  %95 = load ptr, ptr %2, align 8, !tbaa !29
  %96 = getelementptr inbounds nuw %struct.Jpeg2000DecoderContext, ptr %95, i32 0, i32 36
  call void @av_freep(ptr noundef %96)
  %97 = load ptr, ptr %2, align 8, !tbaa !29
  %98 = getelementptr inbounds nuw %struct.Jpeg2000DecoderContext, ptr %97, i32 0, i32 30
  %99 = getelementptr inbounds [4 x %struct.Jpeg2000CodingStyle], ptr %98, i64 0, i64 0
  call void @llvm.memset.p0.i64(ptr align 4 %99, i8 0, i64 352, i1 false)
  %100 = load ptr, ptr %2, align 8, !tbaa !29
  %101 = getelementptr inbounds nuw %struct.Jpeg2000DecoderContext, ptr %100, i32 0, i32 31
  %102 = getelementptr inbounds [4 x %struct.Jpeg2000QuantStyle], ptr %101, i64 0, i64 0
  call void @llvm.memset.p0.i64(ptr align 4 %102, i8 0, i64 1200, i1 false)
  %103 = load ptr, ptr %2, align 8, !tbaa !29
  %104 = getelementptr inbounds nuw %struct.Jpeg2000DecoderContext, ptr %103, i32 0, i32 11
  %105 = getelementptr inbounds [4 x i8], ptr %104, i64 0, i64 0
  call void @llvm.memset.p0.i64(ptr align 8 %105, i8 0, i64 4, i1 false)
  %106 = load ptr, ptr %2, align 8, !tbaa !29
  %107 = getelementptr inbounds nuw %struct.Jpeg2000DecoderContext, ptr %106, i32 0, i32 32
  call void @llvm.memset.p0.i64(ptr align 4 %107, i8 0, i64 328, i1 false)
  %108 = load ptr, ptr %2, align 8, !tbaa !29
  %109 = getelementptr inbounds nuw %struct.Jpeg2000DecoderContext, ptr %108, i32 0, i32 27
  store i32 0, ptr %109, align 4, !tbaa !68
  %110 = load ptr, ptr %2, align 8, !tbaa !29
  %111 = getelementptr inbounds nuw %struct.Jpeg2000DecoderContext, ptr %110, i32 0, i32 26
  store i32 0, ptr %111, align 8, !tbaa !67
  %112 = load ptr, ptr %2, align 8, !tbaa !29
  %113 = getelementptr inbounds nuw %struct.Jpeg2000DecoderContext, ptr %112, i32 0, i32 19
  store i32 0, ptr %113, align 4, !tbaa !55
  call void @llvm.lifetime.end.p0(i64 4, ptr %4) #12
  call void @llvm.lifetime.end.p0(i64 4, ptr %3) #12
  ret void
}