; Function Attrs: nounwind uwtable
define internal fastcc void @jpeg2000_dec_cleanup(ptr noundef %0) unnamed_addr #1 {
  %2 = getelementptr inbounds nuw i8, ptr %0, i64 1216
  %3 = getelementptr inbounds nuw i8, ptr %0, i64 1220
  %4 = load i32, ptr %2, align 8, !tbaa !69
  %5 = load i32, ptr %3, align 4, !tbaa !68
  %6 = mul i32 %5, %4
  %.not40 = icmp eq i32 %6, 0
  br i1 %.not40, label %._crit_edge39, label %.lr.ph38

.lr.ph38:                                         ; preds = %1
  %7 = getelementptr inbounds nuw i8, ptr %0, i64 3128
  %8 = getelementptr inbounds nuw i8, ptr %0, i64 156
  %.pre = load ptr, ptr %7, align 8, !tbaa !54
  br label %9

9:                                                ; preds = %.lr.ph38, %32
  %10 = phi i32 [ %5, %.lr.ph38 ], [ %33, %32 ]
  %11 = phi i32 [ %4, %.lr.ph38 ], [ %34, %32 ]
  %12 = phi ptr [ %.pre, %.lr.ph38 ], [ %35, %32 ]
  %indvars.iv42 = phi i64 [ 0, %.lr.ph38 ], [ %indvars.iv.next43, %32 ]
  %13 = getelementptr inbounds nuw %struct.Jpeg2000Tile, ptr %12, i64 %indvars.iv42
  %14 = load ptr, ptr %13, align 8, !tbaa !85
  %.not = icmp eq ptr %14, null
  br i1 %.not, label %32, label %.preheader

.preheader:                                       ; preds = %9
  %15 = load i32, ptr %8, align 4, !tbaa !67
  %16 = icmp sgt i32 %15, 0
  br i1 %16, label %.lr.ph, label %._crit_edge

.lr.ph:                                           ; preds = %.preheader, %.lr.ph
  %indvars.iv = phi i64 [ %indvars.iv.next, %.lr.ph ], [ 0, %.preheader ]
  %17 = load ptr, ptr %7, align 8, !tbaa !54
  %18 = getelementptr inbounds nuw %struct.Jpeg2000Tile, ptr %17, i64 %indvars.iv42
  %19 = load ptr, ptr %18, align 8, !tbaa !85
  %20 = getelementptr inbounds nuw %struct.Jpeg2000Component, ptr %19, i64 %indvars.iv
  %21 = getelementptr inbounds nuw i8, ptr %18, i64 12
  %22 = getelementptr inbounds nuw %struct.Jpeg2000CodingStyle, ptr %21, i64 %indvars.iv
  tail call void @ff_jpeg2000_cleanup(ptr noundef %20, ptr noundef nonnull %22) #11
  %indvars.iv.next = add nuw nsw i64 %indvars.iv, 1
  %23 = load i32, ptr %8, align 4, !tbaa !67
  %24 = sext i32 %23 to i64
  %25 = icmp slt i64 %indvars.iv.next, %24
  br i1 %25, label %.lr.ph, label %._crit_edge.loopexit, !llvm.loop !137

._crit_edge.loopexit:                             ; preds = %.lr.ph
  %.pre45 = load ptr, ptr %7, align 8, !tbaa !54
  br label %._crit_edge

._crit_edge:                                      ; preds = %._crit_edge.loopexit, %.preheader
  %26 = phi ptr [ %.pre45, %._crit_edge.loopexit ], [ %12, %.preheader ]
  %27 = getelementptr inbounds nuw %struct.Jpeg2000Tile, ptr %26, i64 %indvars.iv42
  tail call void @av_freep(ptr noundef %27) #11
  %28 = load ptr, ptr %7, align 8, !tbaa !54
  %29 = getelementptr inbounds nuw %struct.Jpeg2000Tile, ptr %28, i64 %indvars.iv42, i32 7
  tail call void @av_freep(ptr noundef nonnull %29) #11
  %30 = load ptr, ptr %7, align 8, !tbaa !54
  %31 = getelementptr inbounds nuw %struct.Jpeg2000Tile, ptr %30, i64 %indvars.iv42, i32 8
  store i32 0, ptr %31, align 8, !tbaa !63
  %.pre46 = load i32, ptr %2, align 8, !tbaa !69
  %.pre47 = load i32, ptr %3, align 4, !tbaa !68
  br label %32

32:                                               ; preds = %9, %._crit_edge
  %33 = phi i32 [ %10, %9 ], [ %.pre47, %._crit_edge ]
  %34 = phi i32 [ %11, %9 ], [ %.pre46, %._crit_edge ]
  %35 = phi ptr [ %12, %9 ], [ %30, %._crit_edge ]
  %indvars.iv.next43 = add nuw nsw i64 %indvars.iv42, 1
  %36 = mul i32 %33, %34
  %37 = zext i32 %36 to i64
  %38 = icmp samesign ult i64 %indvars.iv.next43, %37
  br i1 %38, label %9, label %._crit_edge39, !llvm.loop !138

._crit_edge39:                                    ; preds = %32, %1
  %39 = getelementptr inbounds nuw i8, ptr %0, i64 80
  tail call void @av_freep(ptr noundef nonnull %39) #11
  %40 = getelementptr inbounds nuw i8, ptr %0, i64 88
  store i32 0, ptr %40, align 8, !tbaa !102
  %41 = getelementptr inbounds nuw i8, ptr %0, i64 96
  tail call void @llvm.memset.p0.i64(ptr noundef nonnull align 8 dereferenceable(24) %41, i8 0, i64 24, i1 false)
  %42 = getelementptr inbounds nuw i8, ptr %0, i64 3128
  tail call void @av_freep(ptr noundef nonnull %42) #11
  %43 = getelementptr inbounds nuw i8, ptr %0, i64 1236
  %44 = getelementptr inbounds nuw i8, ptr %0, i64 72
  store i32 0, ptr %44, align 8
  store i32 0, ptr %3, align 4, !tbaa !68
  store i32 0, ptr %2, align 8, !tbaa !69
  %45 = getelementptr inbounds nuw i8, ptr %0, i64 156
  store i32 0, ptr %45, align 4, !tbaa !67
  tail call void @llvm.memset.p0.i64(ptr noundef nonnull align 4 dereferenceable(1880) %43, i8 0, i64 1880, i1 false)
  ret void
}